(dp1
S'output'
p2
S"<type 'exceptions.IOError'> [Errno 4] Interrupted system call"
p3
sS'layer'
p4
S'/home/jbtte/web2py/applications/Cifras/models/db.py'
p5
sS'code'
p6
S"#import os\n#if not request.env.web2py_runtime_gae:\n#    try: db = DAL(os.environ.get('DATABASE_URL'))\n#    except: db = DAL('postgres://username:password@localhost/test')\n#from gluon.tools import Auth\n#auth = Auth(db)\n#auth.define_tables(username=True)\n##################################################################\n\n# -*- coding: utf-8 -*-\n# request.requires_https()\n\nif not request.env.web2py_runtime_gae:\n    ## if NOT running on Google App Engine use SQLite or other DB\n    #from gluon.contrib.heroku import *\n    #try: db = DAL(os.environ.get('DATABASE_URL'))\n    #except: db = get_db(name=None, pool_size=10)\n    db = DAL('sqlite://storage.db')\nelse:\n    db = DAL('google:datastore')\n    session.connect(request, response, db=db)\n\n\nfrom gluon.tools import Auth\nauth = Auth(db)\nauth.define_tables(username=True)\n\ndb.define_table('musica',\n   Field('user'),\n   Field('musica'),\n   Field('banda'),\n   Field('created_on', 'datetime', default=request.now),\n   Field('editado', default='false'))\n\ndb.musica.musica.requires = IS_NOT_IN_DB(db(db.musica.user==request.vars.user), 'musica.musica')\n"
p7
sS'snapshot'
p8
(dp9
S'exception'
p10
(dp11
S'__getslice__'
p12
S"<method-wrapper '__getslice__' of exceptions.IOError object>"
p13
sS'__str__'
p14
S"<method-wrapper '__str__' of exceptions.IOError object>"
p15
sS'__reduce__'
p16
S'<built-in method __reduce__ of exceptions.IOError object>'
p17
sS'__dict__'
p18
S'{}'
p19
sS'__sizeof__'
p20
S'<built-in method __sizeof__ of exceptions.IOError object>'
p21
sS'__init__'
p22
S"<method-wrapper '__init__' of exceptions.IOError object>"
p23
sS'__setattr__'
p24
S"<method-wrapper '__setattr__' of exceptions.IOError object>"
p25
sS'__reduce_ex__'
p26
S'<built-in method __reduce_ex__ of exceptions.IOError object>'
p27
sS'__new__'
p28
S'<built-in method __new__ of type object>'
p29
sS'errno'
p30
S'4'
sS'__format__'
p31
S'<built-in method __format__ of exceptions.IOError object>'
p32
sS'__class__'
p33
S"<type 'exceptions.IOError'>"
p34
sS'filename'
p35
S'None'
p36
sS'__doc__'
p37
S"'I/O operation failed.'"
p38
sS'__getitem__'
p39
S"<method-wrapper '__getitem__' of exceptions.IOError object>"
p40
sS'__setstate__'
p41
S'<built-in method __setstate__ of exceptions.IOError object>'
p42
sS'__getattribute__'
p43
S"<method-wrapper '__getattribute__' of exceptions.IOError object>"
p44
sS'args'
p45
S"(4, 'Interrupted system call')"
p46
sS'__subclasshook__'
p47
S'<built-in method __subclasshook__ of type object>'
p48
sS'__unicode__'
p49
S'<built-in method __unicode__ of exceptions.IOError object>'
p50
sS'strerror'
p51
S"'Interrupted system call'"
p52
sS'__delattr__'
p53
S"<method-wrapper '__delattr__' of exceptions.IOError object>"
p54
sS'__repr__'
p55
S"<method-wrapper '__repr__' of exceptions.IOError object>"
p56
sS'__hash__'
p57
S"<method-wrapper '__hash__' of exceptions.IOError object>"
p58
ssS'evalue'
p59
S'[Errno 4] Interrupted system call'
p60
sS'request'
p61
cgluon.html
XML_unpickle
p62
(S's.O\x00\x00<div><table><tr><td style="font-weight:bold;vertical-align:top">ajax</td><td valign="top">:</td><td><div>False</div></td></tr><tr><td style="font-weight:bold;vertical-align:top">application</td><td valign="top">:</td><td><div>Cifras</div></td></tr><tr><td style="font-weight:bold;vertical-align:top">args</td><td valign="top">:</td><td><div><table></table></div></td></tr><tr><td style="font-weight:bold;vertical-align:top">body</td><td valign="top">:</td><td><div>&lt;cStringIO.StringO object at 0x3eacf10&gt;</div></td></tr><tr><td style="font-weight:bold;vertical-align:top">cid</td><td valign="top">:</td><td><div>None</div></td></tr><tr><td style="font-weight:bold;vertical-align:top">client</td><td valign="top">:</td><td><div>187.65.152.56</div></td></tr><tr><td style="font-weight:bold;vertical-align:top">controller</td><td valign="top">:</td><td><div>appadmin</div></td></tr><tr><td style="font-weight:bold;vertical-align:top">cookies</td><td valign="top">:</td><td><div><table><tr><td style="font-weight:bold;vertical-align:top">session_id_admin</td><td valign="top">:</td><td><div>187.65.152.56-87d6135a-d3c9-4aae-8108-ec7afb03f9d8<table><tr><td style="font-weight:bold;vertical-align:top">comment</td><td valign="top">:</td><td><div></div></td></tr><tr><td style="font-weight:bold;vertical-align:top">domain</td><td valign="top">:</td><td><div></div></td></tr><tr><td style="font-weight:bold;vertical-align:top">expires</td><td valign="top">:</td><td><div></div></td></tr><tr><td style="font-weight:bold;vertical-align:top">httponly</td><td valign="top">:</td><td><div></div></td></tr><tr><td style="font-weight:bold;vertical-align:top">max-age</td><td valign="top">:</td><td><div></div></td></tr><tr><td style="font-weight:bold;vertical-align:top">path</td><td valign="top">:</td><td><div></div></td></tr><tr><td style="font-weight:bold;vertical-align:top">secure</td><td valign="top">:</td><td><div></div></td></tr><tr><td style="font-weight:bold;vertical-align:top">version</td><td valign="top">:</td><td><div></div></td></tr></table></div></td></tr><tr><td style="font-weight:bold;vertical-align:top">session_id_welcome</td><td valign="top">:</td><td><div>187.65.152.56-c6c3a000-1fd3-4c28-82bf-ddb55c6ad3b2<table><tr><td style="font-weight:bold;vertical-align:top">comment</td><td valign="top">:</td><td><div></div></td></tr><tr><td style="font-weight:bold;vertical-align:top">domain</td><td valign="top">:</td><td><div></div></td></tr><tr><td style="font-weight:bold;vertical-align:top">expires</td><td valign="top">:</td><td><div></div></td></tr><tr><td style="font-weight:bold;vertical-align:top">httponly</td><td valign="top">:</td><td><div></div></td></tr><tr><td style="font-weight:bold;vertical-align:top">max-age</td><td valign="top">:</td><td><div></div></td></tr><tr><td style="font-weight:bold;vertical-align:top">path</td><td valign="top">:</td><td><div></div></td></tr><tr><td style="font-weight:bold;vertical-align:top">secure</td><td valign="top">:</td><td><div></div></td></tr><tr><td style="font-weight:bold;vertical-align:top">version</td><td valign="top">:</td><td><div></div></td></tr></table></div></td></tr><tr><td style="font-weight:bold;vertical-align:top">sessionid</td><td valign="top">:</td><td><div>a598216d88c243a67add4050c568c069<table><tr><td style="font-weight:bold;vertical-align:top">comment</td><td valign="top">:</td><td><div></div></td></tr><tr><td style="font-weight:bold;vertical-align:top">domain</td><td valign="top">:</td><td><div></div></td></tr><tr><td style="font-weight:bold;vertical-align:top">expires</td><td valign="top">:</td><td><div></div></td></tr><tr><td style="font-weight:bold;vertical-align:top">httponly</td><td valign="top">:</td><td><div></div></td></tr><tr><td style="font-weight:bold;vertical-align:top">max-age</td><td valign="top">:</td><td><div></div></td></tr><tr><td style="font-weight:bold;vertical-align:top">path</td><td valign="top">:</td><td><div></div></td></tr><tr><td style="font-weight:bold;vertical-align:top">secure</td><td valign="top">:</td><td><div></div></td></tr><tr><td style="font-weight:bold;vertical-align:top">version</td><td valign="top">:</td><td><div></div></td></tr></table></div></td></tr></table></div></td></tr><tr><td style="font-weight:bold;vertical-align:top">env</td><td valign="top">:</td><td><div><table><tr><td style="font-weight:bold;vertical-align:top">app_folders</td><td valign="top">:</td><td><div>set([&#x27;/home/jbtte/web2py/applications/Cifras/&#x27;, &#x27;/home/jbtte/web2py/applications/admin/&#x27;])</div></td></tr><tr><td style="font-weight:bold;vertical-align:top">applications_parent</td><td valign="top">:</td><td><div>/home/jbtte/web2py</div></td></tr><tr><td style="font-weight:bold;vertical-align:top">content_length</td><td valign="top">:</td><td><div></div></td></tr><tr><td style="font-weight:bold;vertical-align:top">content_type</td><td valign="top">:</td><td><div></div></td></tr><tr><td style="font-weight:bold;vertical-align:top">db_sessions</td><td valign="top">:</td><td><div>set([])</div></td></tr><tr><td style="font-weight:bold;vertical-align:top">debugging</td><td valign="top">:</td><td><div>True</div></td></tr><tr><td style="font-weight:bold;vertical-align:top">document_root</td><td valign="top">:</td><td><div>/usr/share/nginx/html</div></td></tr><tr><td style="font-weight:bold;vertical-align:top">gluon_parent</td><td valign="top">:</td><td><div>/home/jbtte/web2py</div></td></tr><tr><td style="font-weight:bold;vertical-align:top">http_accept</td><td valign="top">:</td><td><div>text/html,application/xhtml+xml,application/xml;q=0.9,image/webp,*/*;q=0.8</div></td></tr><tr><td style="font-weight:bold;vertical-align:top">http_accept_encoding</td><td valign="top">:</td><td><div>gzip,deflate,sdch</div></td></tr><tr><td style="font-weight:bold;vertical-align:top">http_accept_language</td><td valign="top">:</td><td><div>pt-BR,pt;q=0.8,en-US;q=0.6,en;q=0.4</div></td></tr><tr><td style="font-weight:bold;vertical-align:top">http_connection</td><td valign="top">:</td><td><div>close</div></td></tr><tr><td style="font-weight:bold;vertical-align:top">http_cookie</td><td valign="top">:</td><td><div>sessionid=a598216d88c243a67add4050c568c069; __utma=133430031.682321608.1379258277.1380923632.1380998005.13; __utmb=133430031.39.10.1380998005; __utmc=133430031; __utmz=133430031.1380998005.13.6.utmcsr=google|utmccn=(organic)|utmcmd=organic|utmctr=(not%20provided); session_id_welcome=187.65.152.56-c6c3a000-1fd3-4c28-82bf-ddb55c6ad3b2; session_id_admin=187.65.152.56-87d6135a-d3c9-4aae-8108-ec7afb03f9d8</div></td></tr><tr><td style="font-weight:bold;vertical-align:top">http_host</td><td valign="top">:</td><td><div>jbtte.pythonanywhere.com</div></td></tr><tr><td style="font-weight:bold;vertical-align:top">http_referer</td><td valign="top">:</td><td><div>https://jbtte.pythonanywhere.com/admin/default/design/Cifras</div></td></tr><tr><td style="font-weight:bold;vertical-align:top">http_user_agent</td><td valign="top">:</td><td><div>Mozilla/5.0 (Macintosh; Intel Mac OS X 10_8_5) AppleWebKit/537.36 (KHTML, like Gecko) Chrome/30.0.1599.69 Safari/537.36</div></td></tr><tr><td style="font-weight:bold;vertical-align:top">http_x_forwarded_for</td><td valign="top">:</td><td><div>187.65.152.56</div></td></tr><tr><td style="font-weight:bold;vertical-align:top">http_x_real_ip</td><td valign="top">:</td><td><div>187.65.152.56</div></td></tr><tr><td style="font-weight:bold;vertical-align:top">https</td><td valign="top">:</td><td><div>on</div></td></tr><tr><td style="font-weight:bold;vertical-align:top">is_jython</td><td valign="top">:</td><td><div>False</div></td></tr><tr><td style="font-weight:bold;vertical-align:top">is_pypy</td><td valign="top">:</td><td><div>False</div></td></tr><tr><td style="font-weight:bold;vertical-align:top">local_hosts</td><td valign="top">:</td><td><div><table><tr><td><div>hansel-liveweb1</div></td></tr><tr><td><div>jbtte.pythonanywhere.com</div></td></tr><tr><td><div>::1</div></td></tr><tr><td><div>::ffff:127.0.0.1</div></td></tr><tr><td><div>50.19.109.98</div></td></tr><tr><td><div>127.0.0.1</div></td></tr><tr><td><div>localhost</div></td></tr></table></div></td></tr><tr><td style="font-weight:bold;vertical-align:top">path_info</td><td valign="top">:</td><td><div>/Cifras/appadmin/index</div></td></tr><tr><td style="font-weight:bold;vertical-align:top">query_string</td><td valign="top">:</td><td><div></div></td></tr><tr><td style="font-weight:bold;vertical-align:top">remote_addr</td><td valign="top">:</td><td><div>10.90.182.149</div></td></tr><tr><td style="font-weight:bold;vertical-align:top">remote_port</td><td valign="top">:</td><td><div>45803</div></td></tr><tr><td style="font-weight:bold;vertical-align:top">request_method</td><td valign="top">:</td><td><div>GET</div></td></tr><tr><td style="font-weight:bold;vertical-align:top">request_uri</td><td valign="top">:</td><td><div>/Cifras/appadmin/index</div></td></tr><tr><td style="font-weight:bold;vertical-align:top">script_name</td><td valign="top">:</td><td><div></div></td></tr><tr><td style="font-weight:bold;vertical-align:top">server_name</td><td valign="top">:</td><td><div>jbtte.pythonanywhere.com</div></td></tr><tr><td style="font-weight:bold;vertical-align:top">server_port</td><td valign="top">:</td><td><div>443</div></td></tr><tr><td style="font-weight:bold;vertical-align:top">server_protocol</td><td valign="top">:</td><td><div>HTTP/1.1</div></td></tr><tr><td style="font-weight:bold;vertical-align:top">uwsgi_node</td><td valign="top">:</td><td><div>hansel-liveweb1</div></td></tr><tr><td style="font-weight:bold;vertical-align:top">uwsgi_version</td><td valign="top">:</td><td><div>1.9.12</div></td></tr><tr><td style="font-weight:bold;vertical-align:top">web2py_path</td><td valign="top">:</td><td><div>/home/jbtte/web2py</div></td></tr><tr><td style="font-weight:bold;vertical-align:top">web2py_version</td><td valign="top">:</td><td><div>2.5.1-stable+timestamp.2013.06.06.15.39.19</div></td></tr><tr><td style="font-weight:bold;vertical-align:top">wsgi_errors</td><td valign="top">:</td><td><div>&lt;uwsgi_file__bin_user_wsgi_wrapper.ErrorLogWrapper object at 0x2d02590&gt;</div></td></tr><tr><td style="font-weight:bold;vertical-align:top">wsgi_file_wrapper</td><td valign="top">:</td><td><div>&lt;built-in function uwsgi_sendfile&gt;</div></td></tr><tr><td style="font-weight:bold;vertical-align:top">wsgi_input</td><td valign="top">:</td><td><div>&lt;uwsgi._Input object at 0x7fbc4b32e5e8&gt;</div></td></tr><tr><td style="font-weight:bold;vertical-align:top">wsgi_multiprocess</td><td valign="top">:</td><td><div>True</div></td></tr><tr><td style="font-weight:bold;vertical-align:top">wsgi_multithread</td><td valign="top">:</td><td><div>False</div></td></tr><tr><td style="font-weight:bold;vertical-align:top">wsgi_run_once</td><td valign="top">:</td><td><div>False</div></td></tr><tr><td style="font-weight:bold;vertical-align:top">wsgi_url_scheme</td><td valign="top">:</td><td><div>https</div></td></tr><tr><td style="font-weight:bold;vertical-align:top">wsgi_version</td><td valign="top">:</td><td><div><table><tr><td><div>1</div></td></tr><tr><td><div>0</div></td></tr></table></div></td></tr></table></div></td></tr><tr><td style="font-weight:bold;vertical-align:top">extension</td><td valign="top">:</td><td><div>html</div></td></tr><tr><td style="font-weight:bold;vertical-align:top">folder</td><td valign="top">:</td><td><div>/home/jbtte/web2py/applications/Cifras/</div></td></tr><tr><td style="font-weight:bold;vertical-align:top">function</td><td valign="top">:</td><td><div>index</div></td></tr><tr><td style="font-weight:bold;vertical-align:top">get_vars</td><td valign="top">:</td><td><div><table></table></div></td></tr><tr><td style="font-weight:bold;vertical-align:top">global_settings</td><td valign="top">:</td><td><div><table><tr><td style="font-weight:bold;vertical-align:top">app_folders</td><td valign="top">:</td><td><div>set([&#x27;/home/jbtte/web2py/applications/Cifras/&#x27;, &#x27;/home/jbtte/web2py/applications/admin/&#x27;])</div></td></tr><tr><td style="font-weight:bold;vertical-align:top">applications_parent</td><td valign="top">:</td><td><div>/home/jbtte/web2py</div></td></tr><tr><td style="font-weight:bold;vertical-align:top">db_sessions</td><td valign="top">:</td><td><div>set([])</div></td></tr><tr><td style="font-weight:bold;vertical-align:top">debugging</td><td valign="top">:</td><td><div>True</div></td></tr><tr><td style="font-weight:bold;vertical-align:top">gluon_parent</td><td valign="top">:</td><td><div>/home/jbtte/web2py</div></td></tr><tr><td style="font-weight:bold;vertical-align:top">is_jython</td><td valign="top">:</td><td><div>False</div></td></tr><tr><td style="font-weight:bold;vertical-align:top">is_pypy</td><td valign="top">:</td><td><div>False</div></td></tr><tr><td style="font-weight:bold;vertical-align:top">local_hosts</td><td valign="top">:</td><td><div><table><tr><td><div>hansel-liveweb1</div></td></tr><tr><td><div>jbtte.pythonanywhere.com</div></td></tr><tr><td><div>::1</div></td></tr><tr><td><div>::ffff:127.0.0.1</div></td></tr><tr><td><div>50.19.109.98</div></td></tr><tr><td><div>127.0.0.1</div></td></tr><tr><td><div>localhost</div></td></tr></table></div></td></tr><tr><td style="font-weight:bold;vertical-align:top">web2py_version</td><td valign="top">:</td><td><div>2.5.1-stable+timestamp.2013.06.06.15.39.19</div></td></tr></table></div></td></tr><tr><td style="font-weight:bold;vertical-align:top">is_https</td><td valign="top">:</td><td><div>True</div></td></tr><tr><td style="font-weight:bold;vertical-align:top">is_local</td><td valign="top">:</td><td><div>False</div></td></tr><tr><td style="font-weight:bold;vertical-align:top">is_restful</td><td valign="top">:</td><td><div>False</div></td></tr><tr><td style="font-weight:bold;vertical-align:top">now</td><td valign="top">:</td><td><div>datetime.datetime(2013, 10, 5, 18, 54, 44, 36659)</div></td></tr><tr><td style="font-weight:bold;vertical-align:top">post_vars</td><td valign="top">:</td><td><div><table></table></div></td></tr><tr><td style="font-weight:bold;vertical-align:top">raw_args</td><td valign="top">:</td><td><div></div></td></tr><tr><td style="font-weight:bold;vertical-align:top">raw_extension</td><td valign="top">:</td><td><div>None</div></td></tr><tr><td style="font-weight:bold;vertical-align:top">url</td><td valign="top">:</td><td><div>/Cifras/appadmin/index</div></td></tr><tr><td style="font-weight:bold;vertical-align:top">utcnow</td><td valign="top">:</td><td><div>datetime.datetime(2013, 10, 5, 18, 54, 44, 36680)</div></td></tr><tr><td style="font-weight:bold;vertical-align:top">uuid</td><td valign="top">:</td><td><div>Cifras/187.65.152.56.2013-10-05.18-54-44.980a9675-fcfa-496f-9a67-bb279ab28c47</div></td></tr><tr><td style="font-weight:bold;vertical-align:top">vars</td><td valign="top">:</td><td><div><table></table></div></td></tr><tr><td style="font-weight:bold;vertical-align:top">wsgi</td><td valign="top">:</td><td><div><table><tr><td style="font-weight:bold;vertical-align:top">environ</td><td valign="top">:</td><td><div><table><tr><td style="font-weight:bold;vertical-align:top">CONTENT_LENGTH</td><td valign="top">:</td><td><div></div></td></tr><tr><td style="font-weight:bold;vertical-align:top">CONTENT_TYPE</td><td valign="top">:</td><td><div></div></td></tr><tr><td style="font-weight:bold;vertical-align:top">DOCUMENT_ROOT</td><td valign="top">:</td><td><div>/usr/share/nginx/html</div></td></tr><tr><td style="font-weight:bold;vertical-align:top">HTTPS</td><td valign="top">:</td><td><div>on</div></td></tr><tr><td style="font-weight:bold;vertical-align:top">HTTP_ACCEPT</td><td valign="top">:</td><td><div>text/html,application/xhtml+xml,application/xml;q=0.9,image/webp,*/*;q=0.8</div></td></tr><tr><td style="font-weight:bold;vertical-align:top">HTTP_ACCEPT_ENCODING</td><td valign="top">:</td><td><div>gzip,deflate,sdch</div></td></tr><tr><td style="font-weight:bold;vertical-align:top">HTTP_ACCEPT_LANGUAGE</td><td valign="top">:</td><td><div>pt-BR,pt;q=0.8,en-US;q=0.6,en;q=0.4</div></td></tr><tr><td style="font-weight:bold;vertical-align:top">HTTP_CONNECTION</td><td valign="top">:</td><td><div>close</div></td></tr><tr><td style="font-weight:bold;vertical-align:top">HTTP_COOKIE</td><td valign="top">:</td><td><div>sessionid=a598216d88c243a67add4050c568c069; __utma=133430031.682321608.1379258277.1380923632.1380998005.13; __utmb=133430031.39.10.1380998005; __utmc=133430031; __utmz=133430031.1380998005.13.6.utmcsr=google|utmccn=(organic)|utmcmd=organic|utmctr=(not%20provided); session_id_welcome=187.65.152.56-c6c3a000-1fd3-4c28-82bf-ddb55c6ad3b2; session_id_admin=187.65.152.56-87d6135a-d3c9-4aae-8108-ec7afb03f9d8</div></td></tr><tr><td style="font-weight:bold;vertical-align:top">HTTP_HOST</td><td valign="top">:</td><td><div>jbtte.pythonanywhere.com</div></td></tr><tr><td style="font-weight:bold;vertical-align:top">HTTP_REFERER</td><td valign="top">:</td><td><div>https://jbtte.pythonanywhere.com/admin/default/design/Cifras</div></td></tr><tr><td style="font-weight:bold;vertical-align:top">HTTP_USER_AGENT</td><td valign="top">:</td><td><div>Mozilla/5.0 (Macintosh; Intel Mac OS X 10_8_5) AppleWebKit/537.36 (KHTML, like Gecko) Chrome/30.0.1599.69 Safari/537.36</div></td></tr><tr><td style="font-weight:bold;vertical-align:top">HTTP_X_FORWARDED_FOR</td><td valign="top">:</td><td><div>187.65.152.56</div></td></tr><tr><td style="font-weight:bold;vertical-align:top">HTTP_X_REAL_IP</td><td valign="top">:</td><td><div>187.65.152.56</div></td></tr><tr><td style="font-weight:bold;vertical-align:top">PATH_INFO</td><td valign="top">:</td><td><div>/Cifras/appadmin/index</div></td></tr><tr><td style="font-weight:bold;vertical-align:top">QUERY_STRING</td><td valign="top">:</td><td><div></div></td></tr><tr><td style="font-weight:bold;vertical-align:top">REMOTE_ADDR</td><td valign="top">:</td><td><div>10.90.182.149</div></td></tr><tr><td style="font-weight:bold;vertical-align:top">REMOTE_PORT</td><td valign="top">:</td><td><div>45803</div></td></tr><tr><td style="font-weight:bold;vertical-align:top">REQUEST_METHOD</td><td valign="top">:</td><td><div>GET</div></td></tr><tr><td style="font-weight:bold;vertical-align:top">REQUEST_URI</td><td valign="top">:</td><td><div>/Cifras/appadmin/index</div></td></tr><tr><td style="font-weight:bold;vertical-align:top">SCRIPT_NAME</td><td valign="top">:</td><td><div></div></td></tr><tr><td style="font-weight:bold;vertical-align:top">SERVER_NAME</td><td valign="top">:</td><td><div>jbtte.pythonanywhere.com</div></td></tr><tr><td style="font-weight:bold;vertical-align:top">SERVER_PORT</td><td valign="top">:</td><td><div>443</div></td></tr><tr><td style="font-weight:bold;vertical-align:top">SERVER_PROTOCOL</td><td valign="top">:</td><td><div>HTTP/1.1</div></td></tr><tr><td style="font-weight:bold;vertical-align:top">uwsgi.node</td><td valign="top">:</td><td><div>hansel-liveweb1</div></td></tr><tr><td style="font-weight:bold;vertical-align:top">uwsgi.version</td><td valign="top">:</td><td><div>1.9.12</div></td></tr><tr><td style="font-weight:bold;vertical-align:top">wsgi.errors</td><td valign="top">:</td><td><div>&lt;uwsgi_file__bin_user_wsgi_wrapper.ErrorLogWrapper object at 0x2d02590&gt;</div></td></tr><tr><td style="font-weight:bold;vertical-align:top">wsgi.file_wrapper</td><td valign="top">:</td><td><div>&lt;built-in function uwsgi_sendfile&gt;</div></td></tr><tr><td style="font-weight:bold;vertical-align:top">wsgi.input</td><td valign="top">:</td><td><div>&lt;cStringIO.StringO object at 0x3eacf10&gt;</div></td></tr><tr><td style="font-weight:bold;vertical-align:top">wsgi.multiprocess</td><td valign="top">:</td><td><div>True</div></td></tr><tr><td style="font-weight:bold;vertical-align:top">wsgi.multithread</td><td valign="top">:</td><td><div>False</div></td></tr><tr><td style="font-weight:bold;vertical-align:top">wsgi.run_once</td><td valign="top">:</td><td><div>False</div></td></tr><tr><td style="font-weight:bold;vertical-align:top">wsgi.url_scheme</td><td valign="top">:</td><td><div>https</div></td></tr><tr><td style="font-weight:bold;vertical-align:top">wsgi.version</td><td valign="top">:</td><td><div>1</div></td></tr></table></div></td></tr></table></div></td></tr></table></div>'
tRp63
sS'frames'
p64
(lp65
(dp66
S'file'
p67
S'/home/jbtte/web2py/gluon/restricted.py'
p68
sS'dump'
p69
(dp70
S'environment'
p71
S"{'A': <class 'gluon.html.A'>, 'ANY_OF': <class 'gluon.validators.ANY_OF'>, 'Auth': <class 'gluon.tools.Auth'>, 'B': <class 'gluon.html.B'>, 'BEAUTIFY': <class 'gluon.html.BEAUTIFY'>, 'BODY': <class 'gluon.html.BODY'>, 'BR': <class 'gluon.html.BR'>, 'BUTTON': <class 'gluon.html.BUTTON'>, 'CAT': <class 'gluon.html.CAT'>, 'CENTER': <class 'gluon.html.CENTER'>, ...}"
p72
sS'ccode'
p73
S'<code object <module> at 0x3d7d9b0, file "/home/...eb2py/applications/Cifras/models/db.py", line 13>'
p74
ssS'lnum'
p75
I212
sS'lines'
p76
(dp77
I207
S'    try:'
p78
sI208
S'        if isinstance(code, types.CodeType):'
p79
sI209
S'            ccode = code'
p80
sI210
S'        else:'
p81
sI211
S'            ccode = compile2(code, layer)'
p82
sI212
S'        exec ccode in environment'
p83
sI213
S'    except HTTP:'
p84
sI214
S'        raise'
p85
sI215
S'    except RestrictedError:'
p86
sI216
S'        # do not encapsulate (obfuscate) the original RestrictedError'
p87
ssS'call'
p88
S'(code="#import os\\n#if not request.env.web2py_runtime_ga...usica.user==request.vars.user), \'musica.musica\')\\n", environment={\'A\': <class \'gluon.html.A\'>, \'ANY_OF\': <class \'gluon.validators.ANY_OF\'>, \'Auth\': <class \'gluon.tools.Auth\'>, \'B\': <class \'gluon.html.B\'>, \'BEAUTIFY\': <class \'gluon.html.BEAUTIFY\'>, \'BODY\': <class \'gluon.html.BODY\'>, \'BR\': <class \'gluon.html.BR\'>, \'BUTTON\': <class \'gluon.html.BUTTON\'>, \'CAT\': <class \'gluon.html.CAT\'>, \'CENTER\': <class \'gluon.html.CENTER\'>, ...}, layer=\'/home/jbtte/web2py/applications/Cifras/models/db.py\')'
p89
sS'func'
p90
S'restricted'
p91
sa(dp92
g67
S'/home/jbtte/web2py/applications/Cifras/models/db.py'
p93
sg69
(dp94
S'username'
p95
S'undefined'
p96
sS'auth.define_tables'
p97
S'<bound method Auth.define_tables of <gluon.tools.Auth object>>'
p98
sS'builtinTrue'
p99
S'True'
p100
sS'auth'
p101
S'<gluon.tools.Auth object>'
p102
ssg75
I26
sg76
(dp103
I21
S'    session.connect(request, response, db=db)'
p104
sI22
S''
sI23
S''
sI24
S'from gluon.tools import Auth'
p105
sI25
S'auth = Auth(db)'
p106
sI26
S'auth.define_tables(username=True)'
p107
sI27
S''
sI28
S"db.define_table('musica',"
p108
sI29
S"   Field('user'),"
p109
sI30
S"   Field('musica'),"
p110
ssg88
S'()'
p111
sg90
S'<module>'
p112
sa(dp113
g67
S'/home/jbtte/web2py/gluon/tools.py'
p114
sg69
(dp115
S'builtinformat'
p116
S'<built-in function format>'
p117
ssg75
I1579
sg76
(dp118
I1574
S'                    *extra_fields,'
p119
sI1575
S'                    **dict('
p120
sI1576
S'                        migrate=self.__get_migrate(settings.table_user_name,'
p121
sI1577
S'                                                   migrate),'
p122
sI1578
S'                        fake_migrate=fake_migrate,'
p123
sI1579
S"                        format='%(username)s'))"
p124
sI1580
S'            else:'
p125
sI1581
S'                db.define_table('
p126
sI1582
S'                    settings.table_user_name,'
p127
sI1583
S"                    Field('first_name', length=128, default='',"
p128
ssg88
S'(self=<gluon.tools.Auth object>, username=True, signature=None, migrate=True, fake_migrate=False)'
p129
sg90
S'define_tables'
p130
sa(dp131
g67
S'/home/jbtte/web2py/gluon/dal.py'
p132
sg69
(dp133
S'fields'
p134
S'(<gluon.dal.Field object>, <gluon.dal.Field object>, <gluon.dal.Field object>, <gluon.dal.Field object>, <gluon.dal.Field object>, <gluon.dal.Field object>, <gluon.dal.Field object>, <gluon.dal.Field object>)'
p135
sS'self'
p136
S'<DAL uri="sqlite://storage.db">'
p137
sS'args'
p138
S"{'fake_migrate': False, 'format': '%(username)s', 'migrate': True}"
p139
sS'tablename'
p140
S"'auth_user'"
p141
sS'table'
p142
g96
sS'self.lazy_define_table'
p143
S'<bound method DAL.lazy_define_table of <DAL uri="sqlite://storage.db">>'
p144
ssg75
I7788
sg76
(dp145
I7783
S'                    % (tablename,invalid_args))'
p146
sI7784
S'        if self._lazy_tables and not tablename in self._LAZY_TABLES:'
p147
sI7785
S'            self._LAZY_TABLES[tablename] = (tablename,fields,args)'
p148
sI7786
S'            table = None'
p149
sI7787
S'        else:'
p150
sI7788
S'            table = self.lazy_define_table(tablename,*fields,**args)'
p151
sI7789
S'        if not tablename in self.tables:'
p152
sI7790
S'            self.tables.append(tablename)'
p153
sI7791
S'        return table'
p154
sI7792
S''
ssg88
S'(self=<DAL uri="sqlite://storage.db">, tablename=\'auth_user\', *fields=(<gluon.dal.Field object>, <gluon.dal.Field object>, <gluon.dal.Field object>, <gluon.dal.Field object>, <gluon.dal.Field object>, <gluon.dal.Field object>, <gluon.dal.Field object>, <gluon.dal.Field object>), **args={\'fake_migrate\': False, \'format\': \'%(username)s\', \'migrate\': True})'
p155
sg90
S'define_table'
p156
sa(dp157
g67
S'/home/jbtte/web2py/gluon/dal.py'
p158
sg69
(dp159
S'polymodel'
p160
S'None'
p161
ssg75
I7825
sg76
(dp162
I7820
S'            try:'
p163
sI7821
S'                GLOBAL_LOCKER.acquire()'
p164
sI7822
S'                self._lastsql = self._adapter.create_table('
p165
sI7823
S'                    table,migrate=migrate,'
p166
sI7824
S'                    fake_migrate=fake_migrate,'
p167
sI7825
S'                    polymodel=polymodel)'
p168
sI7826
S'            finally:'
p169
sI7827
S'                GLOBAL_LOCKER.release()'
p170
sI7828
S'        else:'
p171
sI7829
S'            table._dbt = None'
p172
ssg88
S'(self=<DAL uri="sqlite://storage.db">, tablename=\'auth_user\', *fields=(<gluon.dal.Field object>, <gluon.dal.Field object>, <gluon.dal.Field object>, <gluon.dal.Field object>, <gluon.dal.Field object>, <gluon.dal.Field object>, <gluon.dal.Field object>, <gluon.dal.Field object>), **args={\'fake_migrate\': False, \'format\': \'%(username)s\', \'migrate\': True})'
p173
sg90
S'lazy_define_table'
p174
sa(dp175
g67
S'/home/jbtte/web2py/gluon/dal.py'
p176
sg69
(dp177
S'table'
p178
S'<Table auth_user (id,first_name,last_name,email,...stration_key,reset_password_key,registration_id)>'
p179
sS'self'
p180
S'<gluon.dal.SQLiteAdapter object>'
p181
sS'logfile'
p182
g96
sS'table._loggername'
p183
S"'/home/jbtte/web2py/applications/Cifras/databases/sql.log'"
p184
sS'self.file_open'
p185
S'<bound method SQLiteAdapter.file_open of <gluon.dal.SQLiteAdapter object>>'
p186
ssg75
I954
sg76
(dp187
I949
S'            table._dbt = pjoin('
p188
sI950
S"                dbpath, '%s_%s.table' % (table._db._uri_hash, tablename))"
p189
sI951
S''
sI952
S'        if table._dbt:'
p190
sI953
S"            table._loggername = pjoin(dbpath, 'sql.log')"
p191
sI954
S"            logfile = self.file_open(table._loggername, 'a')"
p192
sI955
S'        else:'
p193
sI956
S'            logfile = None'
p194
sI957
S'        if not table._dbt or not self.file_exists(table._dbt):'
p195
sI958
S'            if table._dbt:'
p196
ssg88
S'(self=<gluon.dal.SQLiteAdapter object>, table=<Table auth_user (id,first_name,last_name,email,...stration_key,reset_password_key,registration_id)>, migrate=True, fake_migrate=False, polymodel=None)'
p197
sg90
S'create_table'
p198
sa(dp199
g67
S'/home/jbtte/web2py/gluon/dal.py'
p200
sg69
(dp201
S'mode'
p202
S"'a'"
p203
sS'portalocker.LockedFile'
p204
S"<class 'gluon.portalocker.LockedFile'>"
p205
sS'global portalocker'
p206
S"<module 'gluon.portalocker' from '/home/jbtte/web2py/gluon/portalocker.pyc'>"
p207
sS'fileobj'
p208
g96
sS'filename'
p209
S"'/home/jbtte/web2py/applications/Cifras/databases/sql.log'"
p210
ssg75
I697
sg76
(dp211
I692
S"    def file_open(self, filename, mode='rb', lock=True):"
p212
sI693
S'        """'
p213
sI694
S'        to be used ONLY for files that on GAE may not be on filesystem'
p214
sI695
S'        """'
p215
sI696
S'        if have_portalocker and lock:'
p216
sI697
S'            fileobj = portalocker.LockedFile(filename,mode)'
p217
sI698
S'        else:'
p218
sI699
S'            fileobj = open(filename,mode)'
p219
sI700
S'        return fileobj'
p220
sI701
S''
ssg88
S"(self=<gluon.dal.SQLiteAdapter object>, filename='/home/jbtte/web2py/applications/Cifras/databases/sql.log', mode='a', lock=True)"
p221
sg90
S'file_open'
p222
sa(dp223
g67
S'/home/jbtte/web2py/gluon/portalocker.py'
p224
sg69
(dp225
S'global LOCK_EX'
p226
S'2'
sS'self'
p227
S'<gluon.portalocker.LockedFile object>'
p228
sS'global lock'
p229
S'<function lock>'
p230
sS'self.file'
p231
S"<open file '/home/jbtte/web2py/applications/Cifras/databases/sql.log', mode 'a'>"
p232
ssg75
I122
sg76
(dp233
I117
S"        if 'r' in mode:"
p234
sI118
S'            self.file = open(filename, mode)'
p235
sI119
S'            lock(self.file, LOCK_SH)'
p236
sI120
S"        elif 'w' in mode or 'a' in mode:"
p237
sI121
S"            self.file = open(filename, mode.replace('w', 'a'))"
p238
sI122
S'            lock(self.file, LOCK_EX)'
p239
sI123
S"            if not 'a' in mode:"
p240
sI124
S'                self.file.seek(0)'
p241
sI125
S'                self.file.truncate()'
p242
sI126
S'        else:'
p243
ssg88
S"(self=<gluon.portalocker.LockedFile object>, filename='/home/jbtte/web2py/applications/Cifras/databases/sql.log', mode='a')"
p244
sg90
g22
sa(dp245
g67
S'/home/jbtte/web2py/gluon/portalocker.py'
p246
sg69
(dp247
S'file.fileno'
p248
S'<built-in method fileno of file object>'
p249
sS'fcntl.flock'
p250
S'<built-in function flock>'
p251
sS'global fcntl'
p252
S"<module 'fcntl' (built-in)>"
p253
sS'flags'
p254
S'2'
sS'file'
p255
S"<open file '/home/jbtte/web2py/applications/Cifras/databases/sql.log', mode 'a'>"
p256
ssg75
I89
sg76
(dp257
I84
S'    LOCK_EX = fcntl.LOCK_EX'
p258
sI85
S'    LOCK_SH = fcntl.LOCK_SH'
p259
sI86
S'    LOCK_NB = fcntl.LOCK_NB'
p260
sI87
S''
sI88
S'    def lock(file, flags):'
p261
sI89
S'        fcntl.flock(file.fileno(), flags)'
p262
sI90
S''
sI91
S'    def unlock(file):'
p263
sI92
S'        fcntl.flock(file.fileno(), fcntl.LOCK_UN)'
p264
sI93
S''
ssg88
S"(file=<open file '/home/jbtte/web2py/applications/Cifras/databases/sql.log', mode 'a'>, flags=2)"
p265
sg90
S'lock'
p266
sasS'pyver'
p267
S'Python 2.7.4: /usr/local/bin/uwsgi (prefix: /usr)'
p268
sS'session'
p269
g62
(S's\x1a\x00\x00\x00<div><table></table></div>'
tRp270
sS'etype'
p271
S"<type 'exceptions.IOError'>"
p272
sS'date'
p273
S'Sat Oct  5 18:56:10 2013'
p274
sS'response'
p275
g62
(S's)\x10\x00\x00<div><table><tr><td style="font-weight:bold;vertical-align:top">body</td><td valign="top">:</td><td><div>&lt;cStringIO.StringO object at 0x3eacb58&gt;</div></td></tr><tr><td style="font-weight:bold;vertical-align:top">cookies</td><td valign="top">:</td><td><div><table><tr><td style="font-weight:bold;vertical-align:top">session_id_cifras</td><td valign="top">:</td><td><div>187.65.152.56-cc72b2d2-278e-4d9e-9ca4-d5780116beef<table><tr><td style="font-weight:bold;vertical-align:top">comment</td><td valign="top">:</td><td><div></div></td></tr><tr><td style="font-weight:bold;vertical-align:top">domain</td><td valign="top">:</td><td><div></div></td></tr><tr><td style="font-weight:bold;vertical-align:top">expires</td><td valign="top">:</td><td><div></div></td></tr><tr><td style="font-weight:bold;vertical-align:top">httponly</td><td valign="top">:</td><td><div></div></td></tr><tr><td style="font-weight:bold;vertical-align:top">max-age</td><td valign="top">:</td><td><div></div></td></tr><tr><td style="font-weight:bold;vertical-align:top">path</td><td valign="top">:</td><td><div>/</div></td></tr><tr><td style="font-weight:bold;vertical-align:top">secure</td><td valign="top">:</td><td><div></div></td></tr><tr><td style="font-weight:bold;vertical-align:top">version</td><td valign="top">:</td><td><div></div></td></tr></table></div></td></tr></table></div></td></tr><tr><td style="font-weight:bold;vertical-align:top">delimiters</td><td valign="top">:</td><td><div><table><tr><td><div>{{</div></td></tr><tr><td><div>}}</div></td></tr></table></div></td></tr><tr><td style="font-weight:bold;vertical-align:top">files</td><td valign="top">:</td><td><div><table></table></div></td></tr><tr><td style="font-weight:bold;vertical-align:top">flash</td><td valign="top">:</td><td><div></div></td></tr><tr><td style="font-weight:bold;vertical-align:top">generic_patterns</td><td valign="top">:</td><td><div><table></table></div></td></tr><tr><td style="font-weight:bold;vertical-align:top">headers</td><td valign="top">:</td><td><div><table><tr><td style="font-weight:bold;vertical-align:top">X-Powered-By</td><td valign="top">:</td><td><div>web2py</div></td></tr></table></div></td></tr><tr><td style="font-weight:bold;vertical-align:top">menu</td><td valign="top">:</td><td><div><table></table></div></td></tr><tr><td style="font-weight:bold;vertical-align:top">meta</td><td valign="top">:</td><td><div><table></table></div></td></tr><tr><td style="font-weight:bold;vertical-align:top">models_to_run</td><td valign="top">:</td><td><div><table><tr><td><div>^\\w+\\.py$</div></td></tr><tr><td><div>^appadmin/\\w+\\.py$</div></td></tr><tr><td><div>^appadmin/index/\\w+\\.py$</div></td></tr></table></div></td></tr><tr><td style="font-weight:bold;vertical-align:top">postprocessing</td><td valign="top">:</td><td><div><table></table></div></td></tr><tr><td style="font-weight:bold;vertical-align:top">session_cookie_expires</td><td valign="top">:</td><td><div>None</div></td></tr><tr><td style="font-weight:bold;vertical-align:top">session_data_name</td><td valign="top">:</td><td><div>session_data_cifras</div></td></tr><tr><td style="font-weight:bold;vertical-align:top">session_filename</td><td valign="top">:</td><td><div>/home/jbtte/web2py/applications/Cifras/sessions/187.65.152.56-cc72b2d2-278e-4d9e-9ca4-d5780116beef</div></td></tr><tr><td style="font-weight:bold;vertical-align:top">session_id</td><td valign="top">:</td><td><div>187.65.152.56-cc72b2d2-278e-4d9e-9ca4-d5780116beef</div></td></tr><tr><td style="font-weight:bold;vertical-align:top">session_id_name</td><td valign="top">:</td><td><div>session_id_cifras</div></td></tr><tr><td style="font-weight:bold;vertical-align:top">session_new</td><td valign="top">:</td><td><div>True</div></td></tr><tr><td style="font-weight:bold;vertical-align:top">session_storage_type</td><td valign="top">:</td><td><div>file</div></td></tr><tr><td style="font-weight:bold;vertical-align:top">status</td><td valign="top">:</td><td><div>200</div></td></tr><tr><td style="font-weight:bold;vertical-align:top">view</td><td valign="top">:</td><td><div>appadmin/index.html</div></td></tr></table></div>'
tRp276
sS'locals'
p277
(dp278
S'flags'
p279
S'2'
sg67
S"<open file '/home/jbtte/web2py/applications/Cifras/databases/sql.log', mode 'a'>"
p280
sssS'traceback'
p281
S'Traceback (most recent call last):\n  File "/home/jbtte/web2py/gluon/restricted.py", line 212, in restricted\n    exec ccode in environment\n  File "/home/jbtte/web2py/applications/Cifras/models/db.py", line 26, in <module>\n    auth.define_tables(username=True)\n  File "/home/jbtte/web2py/gluon/tools.py", line 1579, in define_tables\n    format=\'%(username)s\'))\n  File "/home/jbtte/web2py/gluon/dal.py", line 7788, in define_table\n    table = self.lazy_define_table(tablename,*fields,**args)\n  File "/home/jbtte/web2py/gluon/dal.py", line 7825, in lazy_define_table\n    polymodel=polymodel)\n  File "/home/jbtte/web2py/gluon/dal.py", line 954, in create_table\n    logfile = self.file_open(table._loggername, \'a\')\n  File "/home/jbtte/web2py/gluon/dal.py", line 697, in file_open\n    fileobj = portalocker.LockedFile(filename,mode)\n  File "/home/jbtte/web2py/gluon/portalocker.py", line 122, in __init__\n    lock(self.file, LOCK_EX)\n  File "/home/jbtte/web2py/gluon/portalocker.py", line 89, in lock\n    fcntl.flock(file.fileno(), flags)\nIOError: [Errno 4] Interrupted system call\n'
p282
s.